; Function Attrs: nounwind uwtable
define hidden range(i32 -1, 1) i32 @_PyCompile_ConstCacheMergeOne(ptr noundef %0, ptr noundef captures(none) %1) local_unnamed_addr #0 {
  %3 = load ptr, ptr %1, align 8, !tbaa !28
  %4 = tail call fastcc ptr @const_cache_insert(ptr noundef %0, ptr noundef %3, i1 noundef zeroext false)
  %5 = icmp eq ptr %4, null
  br i1 %5, label %Py_DECREF.exit18, label %6

6:                                                ; preds = %2
  %7 = getelementptr i8, ptr %4, i64 8
  %.val = load ptr, ptr %7, align 8, !tbaa !90
  %.not = icmp eq ptr %.val, @PyTuple_Type
  br i1 %.not, label %8, label %25

8:                                                ; preds = %6
  %9 = getelementptr i8, ptr %4, i64 32
  %10 = load ptr, ptr %9, align 8, !tbaa !28
  %11 = load ptr, ptr %1, align 8, !tbaa !28
  %12 = load i32, ptr %10, align 8, !tbaa !4
  %13 = icmp slt i32 %12, 0
  br i1 %13, label %_Py_NewRef.exit, label %14

14:                                               ; preds = %8
  %15 = add nuw i32 %12, 1
  store i32 %15, ptr %10, align 8, !tbaa !4
  br label %_Py_NewRef.exit

_Py_NewRef.exit:                                  ; preds = %8, %14
  store ptr %10, ptr %1, align 8, !tbaa !28
  %16 = load i32, ptr %11, align 8, !tbaa !4
  %.not.i19 = icmp sgt i32 %16, -1
  br i1 %.not.i19, label %17, label %Py_DECREF.exit20

17:                                               ; preds = %_Py_NewRef.exit
  %18 = add nsw i32 %16, -1
  store i32 %18, ptr %11, align 8, !tbaa !4
  %19 = icmp eq i32 %18, 0
  br i1 %19, label %20, label %Py_DECREF.exit20

20:                                               ; preds = %17
  tail call void @_Py_Dealloc(ptr noundef nonnull %11) #11
  br label %Py_DECREF.exit20

Py_DECREF.exit20:                                 ; preds = %_Py_NewRef.exit, %17, %20
  %21 = load i32, ptr %4, align 8, !tbaa !4
  %.not.i17 = icmp sgt i32 %21, -1
  br i1 %.not.i17, label %22, label %Py_DECREF.exit18

22:                                               ; preds = %Py_DECREF.exit20
  %23 = add nsw i32 %21, -1
  store i32 %23, ptr %4, align 8, !tbaa !4
  %24 = icmp eq i32 %23, 0
  br i1 %24, label %Py_DECREF.exit18.sink.split, label %Py_DECREF.exit18

25:                                               ; preds = %6
  %26 = load ptr, ptr %1, align 8, !tbaa !28
  store ptr %4, ptr %1, align 8, !tbaa !28
  %27 = load i32, ptr %26, align 8, !tbaa !4
  %.not.i = icmp sgt i32 %27, -1
  br i1 %.not.i, label %28, label %Py_DECREF.exit18

28:                                               ; preds = %25
  %29 = add nsw i32 %27, -1
  store i32 %29, ptr %26, align 8, !tbaa !4
  %30 = icmp eq i32 %29, 0
  br i1 %30, label %Py_DECREF.exit18.sink.split, label %Py_DECREF.exit18

Py_DECREF.exit18.sink.split:                      ; preds = %28, %22
  %.sink = phi ptr [ %4, %22 ], [ %26, %28 ]
  tail call void @_Py_Dealloc(ptr noundef nonnull %.sink) #11
  br label %Py_DECREF.exit18

Py_DECREF.exit18:                                 ; preds = %Py_DECREF.exit18.sink.split, %28, %25, %22, %Py_DECREF.exit20, %2
  %.0 = phi i32 [ -1, %2 ], [ 0, %Py_DECREF.exit20 ], [ 0, %22 ], [ 0, %25 ], [ 0, %28 ], [ 0, %Py_DECREF.exit18.sink.split ]
  ret i32 %.0
}